target datalayout = "e-m:e-p270:32:32-p271:32:32-p272:64:64-i64:64-i128:128-f80:128-n8:16:32:64-S128"
target triple = "x86_64-pc-linux-gnu"

@hf_command_element_type = internal global i32 0, align 4
@hf_command_element_length = internal global i32 0, align 4
@hf_command_length = internal global i32 0, align 4
@hf_command_element_shutdown_ip_index = internal global i32 0, align 4
@hf_command_element_shutdown_ipv4 = internal global i32 0, align 4
@hf_command_element_shutdown_ipv6 = internal global i32 0, align 4
@hf_command_unknown = internal global i32 0, align 4

; Function Attrs: null_pointer_is_valid sspstrong uwtable
define internal i32 @dissect_wccp2_command_extension(ptr noundef %0, i32 noundef %1, i32 noundef %2, ptr noundef %3, ptr noundef %4, ptr noundef %5) #0 {
  %7 = alloca i32, align 4
  %8 = alloca ptr, align 8
  %9 = alloca i32, align 4
  %10 = alloca i32, align 4
  %11 = alloca ptr, align 8
  %12 = alloca ptr, align 8
  %13 = alloca ptr, align 8
  %14 = alloca i16, align 2
  %15 = alloca i32, align 4
  %16 = alloca i32, align 4
  store ptr %0, ptr %8, align 8
  store i32 %1, ptr %9, align 4
  store i32 %2, ptr %10, align 4
  store ptr %3, ptr %11, align 8
  store ptr %4, ptr %12, align 8
  store ptr %5, ptr %13, align 8
  call void @llvm.lifetime.start.p0(i64 2, ptr %14) #9
  call void @llvm.lifetime.start.p0(i64 4, ptr %15) #9
  br label %17

17:                                               ; preds = %101, %6
  %18 = load i32, ptr %10, align 4
  %19 = icmp eq i32 %18, 0
  br i1 %19, label %20, label %22

20:                                               ; preds = %17
  %21 = load i32, ptr %10, align 4
  store i32 %21, ptr %7, align 4
  store i32 1, ptr %16, align 4
  br label %108

22:                                               ; preds = %17
  %23 = load i32, ptr %10, align 4
  %24 = icmp slt i32 %23, 4
  br i1 %24, label %25, label %28

25:                                               ; preds = %22
  %26 = load i32, ptr %10, align 4
  %27 = sub i32 %26, 4
  store i32 %27, ptr %7, align 4
  store i32 1, ptr %16, align 4
  br label %108

28:                                               ; preds = %22
  %29 = load ptr, ptr %8, align 8
  %30 = load i32, ptr %9, align 4
  %31 = call zeroext i16 @tvb_get_ntohs(ptr noundef %29, i32 noundef %30)
  store i16 %31, ptr %14, align 2
  %32 = load ptr, ptr %12, align 8
  %33 = load i32, ptr @hf_command_element_type, align 4
  %34 = load ptr, ptr %8, align 8
  %35 = load i32, ptr %9, align 4
  %36 = call ptr @proto_tree_add_item(ptr noundef %32, i32 noundef %33, ptr noundef %34, i32 noundef %35, i32 noundef 2, i32 noundef 0)
  %37 = load i32, ptr %10, align 4
  %38 = sub i32 %37, 2
  store i32 %38, ptr %10, align 4
  %39 = load i32, ptr %9, align 4
  %40 = add i32 %39, 2
  store i32 %40, ptr %9, align 4
  %41 = load i32, ptr %10, align 4
  %42 = icmp slt i32 %41, 2
  br i1 %42, label %43, label %46

43:                                               ; preds = %28
  %44 = load i32, ptr %10, align 4
  %45 = sub i32 %44, 2
  store i32 %45, ptr %7, align 4
  store i32 1, ptr %16, align 4
  br label %108

46:                                               ; preds = %28
  %47 = load ptr, ptr %12, align 8
  %48 = load i32, ptr @hf_command_element_length, align 4
  %49 = load ptr, ptr %8, align 8
  %50 = load i32, ptr %9, align 4
  %51 = call ptr @proto_tree_add_item_ret_uint(ptr noundef %47, i32 noundef %48, ptr noundef %49, i32 noundef %50, i32 noundef 2, i32 noundef 0, ptr noundef %15)
  %52 = load ptr, ptr %12, align 8
  %53 = load i32, ptr @hf_command_length, align 4
  %54 = load ptr, ptr %8, align 8
  %55 = load i32, ptr %9, align 4
  %56 = call ptr @proto_tree_add_item(ptr noundef %52, i32 noundef %53, ptr noundef %54, i32 noundef %55, i32 noundef 2, i32 noundef 0)
  %57 = load i32, ptr %10, align 4
  %58 = sub i32 %57, 2
  store i32 %58, ptr %10, align 4
  %59 = load i32, ptr %9, align 4
  %60 = add i32 %59, 2
  store i32 %60, ptr %9, align 4
  %61 = load i16, ptr %14, align 2
  %62 = zext i16 %61 to i32
  %63 = icmp eq i32 %62, 1
  br i1 %63, label %68, label %64

64:                                               ; preds = %46
  %65 = load i16, ptr %14, align 2
  %66 = zext i16 %65 to i32
  %67 = icmp eq i32 %66, 2
  br i1 %67, label %68, label %86

68:                                               ; preds = %64, %46
  %69 = load i32, ptr %15, align 4
  %70 = icmp eq i32 %69, 4
  br i1 %70, label %71, label %86

71:                                               ; preds = %68
  %72 = load i32, ptr %10, align 4
  %73 = icmp slt i32 %72, 4
  br i1 %73, label %74, label %77

74:                                               ; preds = %71
  %75 = load i32, ptr %10, align 4
  %76 = sub i32 %75, 4
  store i32 %76, ptr %7, align 4
  store i32 1, ptr %16, align 4
  br label %108

77:                                               ; preds = %71
  %78 = load ptr, ptr %12, align 8
  %79 = load i32, ptr @hf_command_element_shutdown_ip_index, align 4
  %80 = load i32, ptr @hf_command_element_shutdown_ipv4, align 4
  %81 = load i32, ptr @hf_command_element_shutdown_ipv6, align 4
  %82 = load ptr, ptr %8, align 8
  %83 = load i32, ptr %9, align 4
  %84 = load ptr, ptr %13, align 8
  %85 = call ptr @wccp_add_ipaddress_item(ptr noundef %78, i32 noundef %79, i32 noundef %80, i32 noundef %81, ptr noundef %82, i32 noundef %83, i32 noundef 4, ptr noundef %84)
  br label %101

86:                                               ; preds = %68, %64
  %87 = load i32, ptr %10, align 4
  %88 = load i32, ptr %15, align 4
  %89 = icmp slt i32 %87, %88
  br i1 %89, label %90, label %94

90:                                               ; preds = %86
  %91 = load i32, ptr %10, align 4
  %92 = load i32, ptr %15, align 4
  %93 = sub i32 %91, %92
  store i32 %93, ptr %7, align 4
  store i32 1, ptr %16, align 4
  br label %108

94:                                               ; preds = %86
  %95 = load ptr, ptr %12, align 8
  %96 = load i32, ptr @hf_command_unknown, align 4
  %97 = load ptr, ptr %8, align 8
  %98 = load i32, ptr %9, align 4
  %99 = load i32, ptr %15, align 4
  %100 = call ptr @proto_tree_add_item(ptr noundef %95, i32 noundef %96, ptr noundef %97, i32 noundef %98, i32 noundef %99, i32 noundef 0)
  br label %101

101:                                              ; preds = %94, %77
  %102 = load i32, ptr %15, align 4
  %103 = load i32, ptr %10, align 4
  %104 = sub i32 %103, %102
  store i32 %104, ptr %10, align 4
  %105 = load i32, ptr %15, align 4
  %106 = load i32, ptr %9, align 4
  %107 = add i32 %106, %105
  store i32 %107, ptr %9, align 4
  br label %17

108:                                              ; preds = %90, %74, %43, %25, %20
  call void @llvm.lifetime.end.p0(i64 4, ptr %15) #9
  call void @llvm.lifetime.end.p0(i64 2, ptr %14) #9
  %109 = load i32, ptr %7, align 4
  ret i32 %109
}