; Function Attrs: null_pointer_is_valid sspstrong uwtable
define internal range(i32 2147483644, 2147483643) i32 @dissect_wccp2_command_extension(ptr noundef %0, i32 noundef %1, i32 noundef %2, ptr readnone captures(none) %3, ptr noundef %4, ptr noundef readonly captures(none) %5) unnamed_addr #0 {
  %7 = alloca i32, align 4
  call void @llvm.lifetime.start.p0(i64 4, ptr nonnull %7) #8
  %8 = icmp eq i32 %2, 0
  br i1 %8, label %.loopexit, label %.lr.ph

.lr.ph:                                           ; preds = %6, %42
  %.04054 = phi i32 [ %45, %42 ], [ %1, %6 ]
  %.04153 = phi i32 [ %44, %42 ], [ %2, %6 ]
  %9 = icmp slt i32 %.04153, 4
  br i1 %9, label %10, label %12

10:                                               ; preds = %.lr.ph
  %11 = add i32 %.04153, -4
  br label %.loopexit

12:                                               ; preds = %.lr.ph
  %13 = call zeroext i16 @tvb_get_ntohs(ptr noundef %0, i32 noundef %.04054)
  %14 = load i32, ptr @hf_command_element_type, align 4
  %15 = call ptr @proto_tree_add_item(ptr noundef %4, i32 noundef %14, ptr noundef %0, i32 noundef %.04054, i32 noundef 2, i32 noundef 0)
  %16 = add i32 %.04054, 2
  %17 = load i32, ptr @hf_command_element_length, align 4
  %18 = call ptr @proto_tree_add_item_ret_uint(ptr noundef %4, i32 noundef %17, ptr noundef %0, i32 noundef %16, i32 noundef 2, i32 noundef 0, ptr noundef nonnull %7)
  %19 = load i32, ptr @hf_command_length, align 4
  %20 = call ptr @proto_tree_add_item(ptr noundef %4, i32 noundef %19, ptr noundef %0, i32 noundef %16, i32 noundef 2, i32 noundef 0)
  %21 = add nsw i32 %.04153, -4
  %22 = add i32 %.04054, 4
  %23 = add i16 %13, -1
  %or.cond = icmp ult i16 %23, 2
  %24 = load i32, ptr %7, align 4
  %25 = icmp eq i32 %24, 4
  %or.cond4 = select i1 %or.cond, i1 %25, i1 false
  br i1 %or.cond4, label %26, label %35

26:                                               ; preds = %12
  %27 = icmp samesign ult i32 %.04153, 8
  br i1 %27, label %28, label %30

28:                                               ; preds = %26
  %29 = or disjoint i32 %.04153, -8
  br label %.loopexit

30:                                               ; preds = %26
  %31 = load i32, ptr @hf_command_element_shutdown_ip_index, align 4
  %32 = load i32, ptr @hf_command_element_shutdown_ipv4, align 4
  %33 = load i32, ptr @hf_command_element_shutdown_ipv6, align 4
  %34 = call fastcc ptr @wccp_add_ipaddress_item(ptr noundef %4, i32 noundef %31, i32 noundef %32, i32 noundef %33, ptr noundef %0, i32 noundef %22, ptr noundef %5)
  br label %42

35:                                               ; preds = %12
  %36 = icmp slt i32 %21, %24
  br i1 %36, label %37, label %39

37:                                               ; preds = %35
  %38 = sub nsw i32 %21, %24
  br label %.loopexit

39:                                               ; preds = %35
  %40 = load i32, ptr @hf_command_unknown, align 4
  %41 = call ptr @proto_tree_add_item(ptr noundef %4, i32 noundef %40, ptr noundef %0, i32 noundef %22, i32 noundef %24, i32 noundef 0)
  br label %42

42:                                               ; preds = %39, %30
  %43 = load i32, ptr %7, align 4
  %44 = sub i32 %21, %43
  %45 = add i32 %43, %22
  %46 = icmp eq i32 %44, 0
  br i1 %46, label %.loopexit, label %.lr.ph

.loopexit:                                        ; preds = %42, %6, %37, %28, %10
  %.0 = phi i32 [ %11, %10 ], [ %29, %28 ], [ %38, %37 ], [ 0, %6 ], [ 0, %42 ]
  call void @llvm.lifetime.end.p0(i64 4, ptr nonnull %7) #8
  ret i32 %.0
}